
FabLock.elf:     file format elf32-avr

Sections:
Idx Name          Size      VMA       LMA       File off  Algn
  0 .data         00000002  00800100  0000132c  000013c0  2**0
                  CONTENTS, ALLOC, LOAD, DATA
  1 .text         0000132c  00000000  00000000  00000094  2**1
                  CONTENTS, ALLOC, LOAD, READONLY, CODE
  2 .bss          00000038  00800102  00800102  000013c2  2**0
                  ALLOC
  3 .comment      00000060  00000000  00000000  000013c2  2**0
                  CONTENTS, READONLY
  4 .note.gnu.avr.deviceinfo 00000040  00000000  00000000  00001424  2**2
                  CONTENTS, READONLY
  5 .debug_info   000005f4  00000000  00000000  00001464  2**0
                  CONTENTS, READONLY, DEBUGGING
  6 .debug_abbrev 000005a2  00000000  00000000  00001a58  2**0
                  CONTENTS, READONLY, DEBUGGING
  7 .debug_line   00000133  00000000  00000000  00001ffa  2**0
                  CONTENTS, READONLY, DEBUGGING
  8 .debug_str    00000208  00000000  00000000  0000212d  2**0
                  CONTENTS, READONLY, DEBUGGING

Disassembly of section .text:

00000000 <__vectors>:
       0:	0c 94 77 06 	jmp	0xcee	; 0xcee <__dtors_end>
       4:	0c 94 9f 06 	jmp	0xd3e	; 0xd3e <__bad_interrupt>
       8:	0c 94 9f 06 	jmp	0xd3e	; 0xd3e <__bad_interrupt>
       c:	0c 94 9f 06 	jmp	0xd3e	; 0xd3e <__bad_interrupt>
      10:	0c 94 9f 06 	jmp	0xd3e	; 0xd3e <__bad_interrupt>
      14:	0c 94 9f 06 	jmp	0xd3e	; 0xd3e <__bad_interrupt>
      18:	0c 94 9f 06 	jmp	0xd3e	; 0xd3e <__bad_interrupt>
      1c:	0c 94 9f 06 	jmp	0xd3e	; 0xd3e <__bad_interrupt>
      20:	0c 94 9f 06 	jmp	0xd3e	; 0xd3e <__bad_interrupt>
      24:	0c 94 9f 06 	jmp	0xd3e	; 0xd3e <__bad_interrupt>
      28:	0c 94 9f 06 	jmp	0xd3e	; 0xd3e <__bad_interrupt>
      2c:	0c 94 34 09 	jmp	0x1268	; 0x1268 <__vector_11>
      30:	0c 94 9f 06 	jmp	0xd3e	; 0xd3e <__bad_interrupt>
      34:	0c 94 9f 06 	jmp	0xd3e	; 0xd3e <__bad_interrupt>
      38:	0c 94 d7 08 	jmp	0x11ae	; 0x11ae <__vector_14>
      3c:	0c 94 9f 06 	jmp	0xd3e	; 0xd3e <__bad_interrupt>
      40:	0c 94 9f 06 	jmp	0xd3e	; 0xd3e <__bad_interrupt>
      44:	0c 94 9f 06 	jmp	0xd3e	; 0xd3e <__bad_interrupt>
      48:	0c 94 9f 06 	jmp	0xd3e	; 0xd3e <__bad_interrupt>
      4c:	0c 94 9f 06 	jmp	0xd3e	; 0xd3e <__bad_interrupt>
      50:	0c 94 9f 06 	jmp	0xd3e	; 0xd3e <__bad_interrupt>
      54:	0c 94 9f 06 	jmp	0xd3e	; 0xd3e <__bad_interrupt>
      58:	0c 94 9f 06 	jmp	0xd3e	; 0xd3e <__bad_interrupt>
      5c:	0c 94 9f 06 	jmp	0xd3e	; 0xd3e <__bad_interrupt>
      60:	0c 94 9f 06 	jmp	0xd3e	; 0xd3e <__bad_interrupt>
      64:	0c 94 9f 06 	jmp	0xd3e	; 0xd3e <__bad_interrupt>

00000068 <__trampolines_end>:
      68:	28 04       	cpc	r2, r8
      6a:	00 2f       	mov	r16, r16
      6c:	04 00       	.word	0x0004	; ????
      6e:	23 04       	cpc	r2, r3
      70:	00 2f       	mov	r16, r16
      72:	02 00       	.word	0x0002	; ????
      74:	2f 02       	muls	r18, r31
      76:	00 28       	or	r0, r0
      78:	04 00       	.word	0x0004	; ????
      7a:	2f 02       	muls	r18, r31
      7c:	00 23       	and	r16, r16
      7e:	02 00       	.word	0x0002	; ????
      80:	23 02       	muls	r18, r19
      82:	00 23       	and	r16, r16
      84:	02 00       	.word	0x0002	; ????
      86:	2f 04       	cpc	r2, r15
      88:	00 28       	or	r0, r0
      8a:	04 00       	.word	0x0004	; ????
      8c:	2f 02       	muls	r18, r31
      8e:	00 2f       	mov	r16, r16
      90:	02 00       	.word	0x0002	; ????
      92:	23 04       	cpc	r2, r3
      94:	00 2f       	mov	r16, r16
      96:	02 00       	.word	0x0002	; ????
      98:	2f 02       	muls	r18, r31
      9a:	00 28       	or	r0, r0
      9c:	04 00       	.word	0x0004	; ????
      9e:	00 04       	cpc	r0, r0
      a0:	00 00       	nop
      a2:	02 00       	.word	0x0002	; ????
      a4:	20 02       	muls	r18, r16
      a6:	00 21       	and	r16, r0
      a8:	02 00       	.word	0x0002	; ????
      aa:	22 02       	muls	r18, r18
      ac:	00 23       	and	r16, r16
      ae:	04 00       	.word	0x0004	; ????
      b0:	2c 02       	muls	r18, r28
      b2:	00 23       	and	r16, r16
      b4:	02 00       	.word	0x0002	; ????
      b6:	2c 02       	muls	r18, r28
      b8:	00 2a       	or	r0, r16
      ba:	02 00       	.word	0x0002	; ????
      bc:	00 02       	muls	r16, r16
      be:	00 29       	or	r16, r0
      c0:	0a 00       	.word	0x000a	; ????
      c2:	00 02       	muls	r16, r16
      c4:	00 25       	eor	r16, r0
      c6:	02 00       	.word	0x0002	; ????
      c8:	24 02       	muls	r18, r20
      ca:	00 23       	and	r16, r16
      cc:	02 00       	.word	0x0002	; ????
      ce:	22 04       	cpc	r2, r2
      d0:	00 2a       	or	r0, r16
      d2:	02 00       	.word	0x0002	; ????
      d4:	22 02       	muls	r18, r18
      d6:	00 2a       	or	r0, r16
      d8:	02 00       	.word	0x0002	; ????
      da:	28 02       	muls	r18, r24
      dc:	00 00       	nop
      de:	02 00       	.word	0x0002	; ????
      e0:	27 0a       	sbc	r2, r23
      e2:	00 00       	nop
      e4:	02 00       	.word	0x0002	; ????
      e6:	23 02       	muls	r18, r19
      e8:	00 22       	and	r0, r16
      ea:	02 00       	.word	0x0002	; ????
      ec:	21 02       	muls	r18, r17
      ee:	00 20       	and	r0, r0
      f0:	02 00       	.word	0x0002	; ????
      f2:	23 02       	muls	r18, r19
      f4:	00 28       	or	r0, r0
      f6:	02 00       	.word	0x0002	; ????
      f8:	25 02       	muls	r18, r21
      fa:	00 00       	nop
      fc:	02 00       	.word	0x0002	; ????
      fe:	28 02       	muls	r18, r24
     100:	00 2a       	or	r0, r16
     102:	04 00       	.word	0x0004	; ????
     104:	23 02       	muls	r18, r19
     106:	00 26       	eor	r0, r16
     108:	02 00       	.word	0x0002	; ????
     10a:	2b 02       	muls	r18, r27
     10c:	00 28       	or	r0, r0
     10e:	02 00       	.word	0x0002	; ????
     110:	00 02       	muls	r16, r16
     112:	00 2b       	or	r16, r16
     114:	02 00       	.word	0x0002	; ????
     116:	2d 04       	cpc	r2, r13
     118:	00 2f       	mov	r16, r16
     11a:	10 00       	.word	0x0010	; ????
     11c:	2f 02       	muls	r18, r31
     11e:	00 00       	nop
     120:	02 00       	.word	0x0002	; ????
     122:	2f 02       	muls	r18, r31
     124:	00 2f       	mov	r16, r16
     126:	02 00       	.word	0x0002	; ????
     128:	31 02       	muls	r19, r17
     12a:	00 2f       	mov	r16, r16
     12c:	02 00       	.word	0x0002	; ????
     12e:	2b 01       	movw	r4, r22
     130:	00 2a       	or	r0, r16
     132:	03 00       	.word	0x0003	; ????
     134:	28 04       	cpc	r2, r8
     136:	00 2c       	mov	r0, r0
     138:	02 00       	.word	0x0002	; ????
     13a:	23 02       	muls	r18, r19
     13c:	00 2c       	mov	r0, r0
     13e:	02 00       	.word	0x0002	; ????
     140:	2a 02       	muls	r18, r26
     142:	00 00       	nop
     144:	02 00       	.word	0x0002	; ????
     146:	29 02       	muls	r18, r25
     148:	00 29       	or	r16, r0
     14a:	08 00       	.word	0x0008	; ????
     14c:	00 02       	muls	r16, r16
     14e:	00 25       	eor	r16, r0
     150:	02 00       	.word	0x0002	; ????
     152:	24 02       	muls	r18, r20
     154:	00 23       	and	r16, r16
     156:	02 00       	.word	0x0002	; ????
     158:	22 04       	cpc	r2, r2
     15a:	00 2a       	or	r0, r16
     15c:	02 00       	.word	0x0002	; ????
     15e:	22 02       	muls	r18, r18
     160:	00 2a       	or	r0, r16
     162:	02 00       	.word	0x0002	; ????
     164:	28 02       	muls	r18, r24
     166:	00 00       	nop
     168:	02 00       	.word	0x0002	; ????
     16a:	27 0a       	sbc	r2, r23
     16c:	00 00       	nop
     16e:	02 00       	.word	0x0002	; ????
     170:	23 02       	muls	r18, r19
     172:	00 22       	and	r0, r16
     174:	02 00       	.word	0x0002	; ????
     176:	21 02       	muls	r18, r17
     178:	00 20       	and	r0, r0
     17a:	02 00       	.word	0x0002	; ????
     17c:	23 02       	muls	r18, r19
     17e:	00 28       	or	r0, r0
     180:	02 00       	.word	0x0002	; ????
     182:	25 02       	muls	r18, r21
     184:	00 00       	nop
     186:	02 00       	.word	0x0002	; ????
     188:	28 02       	muls	r18, r24
     18a:	00 2a       	or	r0, r16
     18c:	04 00       	.word	0x0004	; ????
     18e:	23 02       	muls	r18, r19
     190:	00 26       	eor	r0, r16
     192:	02 00       	.word	0x0002	; ????
     194:	2b 02       	muls	r18, r27
     196:	00 28       	or	r0, r0
     198:	02 00       	.word	0x0002	; ????
     19a:	00 02       	muls	r16, r16
     19c:	00 2b       	or	r16, r16
     19e:	02 00       	.word	0x0002	; ????
     1a0:	2d 04       	cpc	r2, r13
     1a2:	00 2f       	mov	r16, r16
     1a4:	10 00       	.word	0x0010	; ????
     1a6:	00 04       	cpc	r0, r0
     1a8:	00 2f       	mov	r16, r16
     1aa:	02 00       	.word	0x0002	; ????
     1ac:	2f 02       	muls	r18, r31
     1ae:	00 31       	cpi	r16, 0x10	; 16
     1b0:	02 00       	.word	0x0002	; ????
     1b2:	2f 02       	muls	r18, r31
     1b4:	00 2b       	or	r16, r16
     1b6:	01 00       	.word	0x0001	; ????
     1b8:	2a 03       	fmul	r18, r18
     1ba:	00 28       	or	r0, r0
     1bc:	04 00       	.word	0x0004	; ????
     1be:	00 04       	cpc	r0, r0
     1c0:	00 23       	and	r16, r16
     1c2:	04 00       	.word	0x0004	; ????
     1c4:	2f 02       	muls	r18, r31
     1c6:	00 2f       	mov	r16, r16
     1c8:	02 00       	.word	0x0002	; ????
     1ca:	28 04       	cpc	r2, r8
     1cc:	00 2f       	mov	r16, r16
     1ce:	02 00       	.word	0x0002	; ????
     1d0:	23 02       	muls	r18, r19
     1d2:	00 23       	and	r16, r16
     1d4:	02 00       	.word	0x0002	; ????
     1d6:	23 02       	muls	r18, r19
     1d8:	00 2f       	mov	r16, r16
     1da:	04 00       	.word	0x0004	; ????
     1dc:	28 04       	cpc	r2, r8
     1de:	00 2f       	mov	r16, r16
     1e0:	02 00       	.word	0x0002	; ????
     1e2:	2f 02       	muls	r18, r31
     1e4:	00 23       	and	r16, r16
     1e6:	04 00       	.word	0x0004	; ????
     1e8:	2f 02       	muls	r18, r31
     1ea:	00 2f       	mov	r16, r16
     1ec:	02 00       	.word	0x0002	; ????
     1ee:	00 04       	cpc	r0, r0
     1f0:	00 28       	or	r0, r0
     1f2:	04 00       	.word	0x0004	; ????
     1f4:	2a 04       	cpc	r2, r10
     1f6:	00 2c       	mov	r0, r0
     1f8:	04 00       	.word	0x0004	; ????
     1fa:	2d 04       	cpc	r2, r13
     1fc:	00 00       	nop
     1fe:	04 00       	.word	0x0004	; ????
     200:	00 02       	muls	r16, r16
     202:	00 2d       	mov	r16, r0
     204:	02 00       	.word	0x0002	; ????
     206:	2f 02       	muls	r18, r31
     208:	00 2d       	mov	r16, r0
     20a:	02 00       	.word	0x0002	; ????
     20c:	31 02       	muls	r19, r17
     20e:	00 2f       	mov	r16, r16
     210:	02 00       	.word	0x0002	; ????
     212:	00 02       	muls	r16, r16
     214:	00 2d       	mov	r16, r0
     216:	02 00       	.word	0x0002	; ????
     218:	00 02       	muls	r16, r16
     21a:	00 2b       	or	r16, r16
     21c:	02 00       	.word	0x0002	; ????
     21e:	2a 02       	muls	r18, r26
     220:	00 28       	or	r0, r0
     222:	02 00       	.word	0x0002	; ????
     224:	26 08       	sbc	r2, r6
     226:	00 28       	or	r0, r0
     228:	02 00       	.word	0x0002	; ????
     22a:	29 02       	muls	r18, r25
     22c:	00 00       	nop
     22e:	02 00       	.word	0x0002	; ????
     230:	2a 06       	cpc	r2, r26
     232:	00 00       	nop
     234:	04 00       	.word	0x0004	; ????
     236:	00 02       	muls	r16, r16
     238:	00 26       	eor	r0, r16
     23a:	02 00       	.word	0x0002	; ????
     23c:	25 02       	muls	r18, r21
     23e:	00 24       	eor	r0, r0
     240:	02 00       	.word	0x0002	; ????
     242:	23 04       	cpc	r2, r3
     244:	00 2b       	or	r16, r16
     246:	02 00       	.word	0x0002	; ????
     248:	2b 02       	muls	r18, r27
     24a:	00 00       	nop
     24c:	02 00       	.word	0x0002	; ????
     24e:	2b 02       	muls	r18, r27
     250:	00 2d       	mov	r16, r0
     252:	02 00       	.word	0x0002	; ????
     254:	2b 02       	muls	r18, r27
     256:	00 2f       	mov	r16, r16
     258:	02 00       	.word	0x0002	; ????
     25a:	2d 04       	cpc	r2, r13
     25c:	00 2b       	or	r16, r16
     25e:	02 00       	.word	0x0002	; ????
     260:	00 02       	muls	r16, r16
     262:	00 29       	or	r16, r0
     264:	02 00       	.word	0x0002	; ????
     266:	28 02       	muls	r18, r24
     268:	00 26       	eor	r0, r16
     26a:	02 00       	.word	0x0002	; ????
     26c:	24 04       	cpc	r2, r4
     26e:	00 24       	eor	r0, r0
     270:	04 00       	.word	0x0004	; ????
     272:	26 02       	muls	r18, r22
     274:	00 28       	or	r0, r0
     276:	06 00       	.word	0x0006	; ????
     278:	27 02       	muls	r18, r23
     27a:	00 28       	or	r0, r0
     27c:	02 00       	.word	0x0002	; ????
     27e:	00 02       	muls	r16, r16
     280:	00 2a       	or	r0, r16
     282:	12 00       	.word	0x0012	; ????
     284:	00 02       	muls	r16, r16
     286:	00 20       	and	r0, r0
     288:	02 00       	.word	0x0002	; ????
     28a:	21 02       	muls	r18, r17
     28c:	00 22       	and	r0, r16
     28e:	02 00       	.word	0x0002	; ????
     290:	23 04       	cpc	r2, r3
     292:	00 2c       	mov	r0, r0
     294:	02 00       	.word	0x0002	; ????
     296:	23 02       	muls	r18, r19
     298:	00 2c       	mov	r0, r0
     29a:	02 00       	.word	0x0002	; ????
     29c:	2a 02       	muls	r18, r26
     29e:	00 00       	nop
     2a0:	02 00       	.word	0x0002	; ????
     2a2:	29 02       	muls	r18, r25
     2a4:	00 29       	or	r16, r0
     2a6:	08 00       	.word	0x0008	; ????
     2a8:	00 02       	muls	r16, r16
     2aa:	00 25       	eor	r16, r0
     2ac:	02 00       	.word	0x0002	; ????
     2ae:	24 02       	muls	r18, r20
     2b0:	00 23       	and	r16, r16
     2b2:	02 00       	.word	0x0002	; ????
     2b4:	22 04       	cpc	r2, r2
     2b6:	00 2a       	or	r0, r16
     2b8:	02 00       	.word	0x0002	; ????
     2ba:	22 02       	muls	r18, r18
     2bc:	00 2a       	or	r0, r16
     2be:	02 00       	.word	0x0002	; ????
     2c0:	28 02       	muls	r18, r24
     2c2:	00 00       	nop
     2c4:	02 00       	.word	0x0002	; ????
     2c6:	27 02       	muls	r18, r23
     2c8:	00 27       	eor	r16, r16
     2ca:	08 00       	.word	0x0008	; ????
     2cc:	00 02       	muls	r16, r16
     2ce:	00 23       	and	r16, r16
     2d0:	02 00       	.word	0x0002	; ????
     2d2:	22 02       	muls	r18, r18
     2d4:	00 21       	and	r16, r0
     2d6:	02 00       	.word	0x0002	; ????
     2d8:	20 02       	muls	r18, r16
     2da:	00 23       	and	r16, r16
     2dc:	02 00       	.word	0x0002	; ????
     2de:	28 02       	muls	r18, r24
     2e0:	00 25       	eor	r16, r0
     2e2:	02 00       	.word	0x0002	; ????
     2e4:	00 02       	muls	r16, r16
     2e6:	00 28       	or	r0, r0
     2e8:	02 00       	.word	0x0002	; ????
     2ea:	2a 04       	cpc	r2, r10
     2ec:	00 23       	and	r16, r16
     2ee:	02 00       	.word	0x0002	; ????
     2f0:	26 02       	muls	r18, r22
     2f2:	00 2b       	or	r16, r16
     2f4:	02 00       	.word	0x0002	; ????
     2f6:	28 02       	muls	r18, r24
     2f8:	00 00       	nop
     2fa:	02 00       	.word	0x0002	; ????
     2fc:	2b 02       	muls	r18, r27
     2fe:	00 2d       	mov	r16, r0
     300:	04 00       	.word	0x0004	; ????
     302:	2f 10       	cpse	r2, r15
     304:	00 00       	nop
     306:	04 00       	.word	0x0004	; ????
     308:	2f 02       	muls	r18, r31
     30a:	00 2f       	mov	r16, r16
     30c:	02 00       	.word	0x0002	; ????
     30e:	31 02       	muls	r19, r17
     310:	00 2f       	mov	r16, r16
     312:	02 00       	.word	0x0002	; ????
     314:	2b 01       	movw	r4, r22
     316:	00 2a       	or	r0, r16
     318:	03 00       	.word	0x0003	; ????
     31a:	28 04       	cpc	r2, r8
     31c:	00 00       	nop
     31e:	04 00       	.word	0x0004	; ????
     320:	23 04       	cpc	r2, r3
     322:	00 2f       	mov	r16, r16
     324:	02 00       	.word	0x0002	; ????
     326:	2f 02       	muls	r18, r31
     328:	00 28       	or	r0, r0
     32a:	04 00       	.word	0x0004	; ????
     32c:	2f 02       	muls	r18, r31
     32e:	00 23       	and	r16, r16
     330:	02 00       	.word	0x0002	; ????
     332:	23 02       	muls	r18, r19
     334:	00 23       	and	r16, r16
     336:	02 00       	.word	0x0002	; ????
     338:	2f 04       	cpc	r2, r15
     33a:	00 28       	or	r0, r0
     33c:	04 00       	.word	0x0004	; ????
     33e:	2f 02       	muls	r18, r31
     340:	00 2f       	mov	r16, r16
     342:	02 00       	.word	0x0002	; ????
     344:	23 04       	cpc	r2, r3
     346:	00 2f       	mov	r16, r16
     348:	02 00       	.word	0x0002	; ????
     34a:	2f 02       	muls	r18, r31
     34c:	00 00       	nop
     34e:	04 00       	.word	0x0004	; ????
     350:	28 04       	cpc	r2, r8
     352:	00 2a       	or	r0, r16
     354:	04 00       	.word	0x0004	; ????
     356:	2c 04       	cpc	r2, r12
     358:	00 2d       	mov	r16, r0
     35a:	04 00       	.word	0x0004	; ????
     35c:	00 04       	cpc	r0, r0
     35e:	00 00       	nop
     360:	02 00       	.word	0x0002	; ????
     362:	2d 02       	muls	r18, r29
     364:	00 2f       	mov	r16, r16
     366:	02 00       	.word	0x0002	; ????
     368:	2d 02       	muls	r18, r29
     36a:	00 31       	cpi	r16, 0x10	; 16
     36c:	02 00       	.word	0x0002	; ????
     36e:	2f 02       	muls	r18, r31
     370:	00 00       	nop
     372:	02 00       	.word	0x0002	; ????
     374:	2d 02       	muls	r18, r29
     376:	00 00       	nop
     378:	02 00       	.word	0x0002	; ????
     37a:	2b 02       	muls	r18, r27
     37c:	00 2a       	or	r0, r16
     37e:	02 00       	.word	0x0002	; ????
     380:	28 02       	muls	r18, r24
     382:	00 00       	nop
     384:	04 00       	.word	0x0004	; ????
     386:	26 04       	cpc	r2, r6
     388:	00 00       	nop
     38a:	04 00       	.word	0x0004	; ????
     38c:	00 02       	muls	r16, r16
     38e:	00 2a       	or	r0, r16
     390:	02 00       	.word	0x0002	; ????
     392:	26 04       	cpc	r2, r6
     394:	00 28       	or	r0, r0
     396:	02 00       	.word	0x0002	; ????
     398:	29 02       	muls	r18, r25
     39a:	00 2a       	or	r0, r16
     39c:	04 00       	.word	0x0004	; ????
     39e:	00 04       	cpc	r0, r0
     3a0:	00 00       	nop
     3a2:	08 00       	.word	0x0008	; ????
     3a4:	23 04       	cpc	r2, r3
     3a6:	00 2b       	or	r16, r16
     3a8:	02 00       	.word	0x0002	; ????
     3aa:	2b 02       	muls	r18, r27
     3ac:	00 00       	nop
     3ae:	02 00       	.word	0x0002	; ????
     3b0:	2b 02       	muls	r18, r27
     3b2:	00 2d       	mov	r16, r0
     3b4:	02 00       	.word	0x0002	; ????
     3b6:	2b 02       	muls	r18, r27
     3b8:	00 2f       	mov	r16, r16
     3ba:	02 00       	.word	0x0002	; ????
     3bc:	2d 04       	cpc	r2, r13
     3be:	00 2b       	or	r16, r16
     3c0:	02 00       	.word	0x0002	; ????
     3c2:	00 02       	muls	r16, r16
     3c4:	00 29       	or	r16, r0
     3c6:	02 00       	.word	0x0002	; ????
     3c8:	28 02       	muls	r18, r24
     3ca:	00 26       	eor	r0, r16
     3cc:	02 00       	.word	0x0002	; ????
     3ce:	24 04       	cpc	r2, r4
     3d0:	00 24       	eor	r0, r0
     3d2:	04 00       	.word	0x0004	; ????
     3d4:	26 02       	muls	r18, r22
     3d6:	00 28       	or	r0, r0
     3d8:	06 00       	.word	0x0006	; ????
     3da:	27 02       	muls	r18, r23
     3dc:	00 28       	or	r0, r0
     3de:	02 00       	.word	0x0002	; ????
     3e0:	00 02       	muls	r16, r16
     3e2:	00 2a       	or	r0, r16
     3e4:	12 00       	.word	0x0012	; ????
     3e6:	00 02       	muls	r16, r16
     3e8:	00 20       	and	r0, r0
     3ea:	02 00       	.word	0x0002	; ????
     3ec:	21 02       	muls	r18, r17
     3ee:	00 22       	and	r0, r16
     3f0:	02 00       	.word	0x0002	; ????
     3f2:	23 04       	cpc	r2, r3
     3f4:	00 2c       	mov	r0, r0
     3f6:	02 00       	.word	0x0002	; ????
     3f8:	23 02       	muls	r18, r19
     3fa:	00 2c       	mov	r0, r0
     3fc:	02 00       	.word	0x0002	; ????
     3fe:	2a 02       	muls	r18, r26
     400:	00 00       	nop
     402:	02 00       	.word	0x0002	; ????
     404:	29 02       	muls	r18, r25
     406:	00 29       	or	r16, r0
     408:	08 00       	.word	0x0008	; ????
     40a:	00 02       	muls	r16, r16
     40c:	00 25       	eor	r16, r0
     40e:	02 00       	.word	0x0002	; ????
     410:	24 02       	muls	r18, r20
     412:	00 23       	and	r16, r16
     414:	02 00       	.word	0x0002	; ????
     416:	22 04       	cpc	r2, r2
     418:	00 2a       	or	r0, r16
     41a:	02 00       	.word	0x0002	; ????
     41c:	22 02       	muls	r18, r18
     41e:	00 2a       	or	r0, r16
     420:	02 00       	.word	0x0002	; ????
     422:	28 02       	muls	r18, r24
     424:	00 00       	nop
     426:	02 00       	.word	0x0002	; ????
     428:	27 02       	muls	r18, r23
     42a:	00 27       	eor	r16, r16
     42c:	08 00       	.word	0x0008	; ????
     42e:	00 02       	muls	r16, r16
     430:	00 23       	and	r16, r16
     432:	02 00       	.word	0x0002	; ????
     434:	22 02       	muls	r18, r18
     436:	00 21       	and	r16, r0
     438:	02 00       	.word	0x0002	; ????
     43a:	20 02       	muls	r18, r16
     43c:	00 23       	and	r16, r16
     43e:	02 00       	.word	0x0002	; ????
     440:	28 02       	muls	r18, r24
     442:	00 25       	eor	r16, r0
     444:	02 00       	.word	0x0002	; ????
     446:	00 02       	muls	r16, r16
     448:	00 28       	or	r0, r0
     44a:	02 00       	.word	0x0002	; ????
     44c:	2a 04       	cpc	r2, r10
     44e:	00 23       	and	r16, r16
     450:	02 00       	.word	0x0002	; ????
     452:	26 02       	muls	r18, r22
     454:	00 2b       	or	r16, r16
     456:	02 00       	.word	0x0002	; ????
     458:	28 02       	muls	r18, r24
     45a:	00 00       	nop
     45c:	02 00       	.word	0x0002	; ????
     45e:	2b 02       	muls	r18, r27
     460:	00 2d       	mov	r16, r0
     462:	04 00       	.word	0x0004	; ????
     464:	2f 10       	cpse	r2, r15
     466:	00 00       	nop
     468:	04 00       	.word	0x0004	; ????
     46a:	2f 02       	muls	r18, r31
     46c:	00 2f       	mov	r16, r16
     46e:	02 00       	.word	0x0002	; ????
     470:	31 02       	muls	r19, r17
     472:	00 2f       	mov	r16, r16
     474:	02 00       	.word	0x0002	; ????
     476:	2b 01       	movw	r4, r22
     478:	00 2a       	or	r0, r16
     47a:	03 00       	.word	0x0003	; ????
     47c:	28 04       	cpc	r2, r8
     47e:	00 00       	nop
     480:	04 00       	.word	0x0004	; ????
     482:	00 08       	sbc	r0, r0
     484:	00 00       	nop
     486:	10 00       	.word	0x0010	; ????
     488:	40 00       	.word	0x0040	; ????
	...

0000048b <_ZL5lied1>:
     48b:	34 04 00 31 01 00 2f 03 00 28 02 00 28 02 00 25     4..1../..(..(..%
     49b:	01 00 23 03 00 31 01 00 2b 02 00 28 01 00 2a 02     ..#..1..+..(..*.
     4ab:	00 28 02 00 00 04 00 2f 04 00 34 02 00 34 02 00     .(...../..4..4..
     4bb:	31 01 00 2f 01 00 2c 01 00 28 01 00 2f 02 00 31     1../..,..(../..1
     4cb:	02 00 2f 01 00 2c 01 00 28 01 00 25 01 00 28 02     ../..,..(..%..(.
     4db:	00 28 01 00 2a 01 00 2c 01 00 2f 01 00 31 01 00     .(..*..,../..1..
     4eb:	2f 01 00 34 04 00 00 01 00 2f 01 00 31 01 00 33     /..4...../..1..3
     4fb:	01 00 34 02 00 34 02 00 31 01 00 2f 01 00 2c 01     ..4..4..1../..,.
     50b:	00 28 01 00 2f 02 00 31 02 00 2f 01 00 2c 01 00     .(../..1../..,..
     51b:	28 01 00 25 01 00 2f 02 00 2f 01 00 31 01 00 32     (..%../../..1..2
     52b:	01 00 33 01 00 36 01 00 33 01 00 2f 04 00 00 01     ..3..6..3../....
     53b:	00 23 01 00 25 01 00 27 01 00 28 02 00 28 01 00     .#..%..'..(..(..
     54b:	28 01 00 28 02 00 28 01 00 28 01 00 28 02 00 28     (..(..(..(..(..(
     55b:	01 00 28 01 00 25 01 00 23 01 00 20 01 00 1c 01     ..(..%..#.. ....
     56b:	00 21 02 00 21 01 00 21 01 00 21 02 00 21 01 00     .!..!..!..!..!..
     57b:	21 01 00 25 02 00 28 01 00 2a 01 00 2b 01 00 28     !..%..(..*..+..(
     58b:	02 00 2a 01 00 2c 01 00 2b 01 00 2c 01 00 2b 01     ..*..,..+..,..+.
     59b:	00 2c 01 00 2f 02 00 2b 01 00 2c 01 00 2f 01 00     .,../..+..,../..
     5ab:	2c 01 00 2a 01 00 28 01 00 25 01 00 00 02 00 31     ,..*..(..%.....1
     5bb:	01 00 2b 02 00 28 01 00 2a 02 00 28 02 00 00 04     ..+..(..*..(....
     5cb:	00 2f 04 00 34 02 00 34 02 00 31 01 00 2f 01 00     ./..4..4..1../..
     5db:	2c 01 00 28 01 00 2f 02 00 31 02 00 2f 01 00 2c     ,..(../..1../..,
     5eb:	01 00 28 01 00 25 01 00 28 02 00 28 01 00 2a 01     ..(..%..(..(..*.
     5fb:	00 2c 01 00 2f 01 00 31 01 00 2f 01 00 34 04 00     .,../..1../..4..
     60b:	00 01 00 2f 01 00 31 01 00 33 01 00 34 02 00 34     .../..1..3..4..4
     61b:	02 00 31 01 00 2f 01 00 2c 01 00 28 01 00 2f 02     ..1../..,..(../.
     62b:	00 31 02 00 2f 01 00 2c 01 00 28 01 00 25 01 00     .1../..,..(..%..
     63b:	2f 02 00 2f 01 00 31 01 00 32 01 00 33 01 00 36     /../..1..2..3..6
     64b:	01 00 33 01 00 2f 04 00 00 01 00 23 01 00 25 01     ..3../.....#..%.
     65b:	00 27 01 00 28 02 00 28 01 00 28 01 00 28 02 00     .'..(..(..(..(..
     66b:	28 01 00 28 01 00 28 02 00 28 01 00 28 01 00 25     (..(..(..(..(..%
     67b:	01 00 23 01 00 20 01 00 1c 01 00 21 02 00 21 01     ..#.. .....!..!.
     68b:	00 21 01 00 21 02 00 21 01 00 21 01 00 25 02 00     .!..!..!..!..%..
     69b:	28 01 00 2a 01 00 2b 01 00 28 02 00 2a 01 00 2c     (..*..+..(..*..,
     6ab:	01 00 2b 01 00 2c 01 00 2b 01 00 2c 01 00 2f 02     ..+..,..+..,../.
     6bb:	00 2b 01 00 2c 01 00 2f 01 00 2c 01 00 2a 01 00     .+..,../..,..*..
     6cb:	28 01 00 25 01 00 00 02 00 31 01 00 2b 02 00 28     (..%.....1..+..(
     6db:	01 00 2a 02 00 28 02 00 00 04 00 2f 04 00 00 02     ..*..(...../....
     6eb:	00 23 01 00 23 01 00 00 02 00 28 02 00 00 02 00     .#..#.....(.....
     6fb:	23 01 00 23 01 00 28 02 00 29 02 00 2a 0c 00 2a     #..#..(..)..*..*
     70b:	04 00 2f 02 00 2e 02 00 2d 01 00 2e 01 00 2d 01     ../.....-.....-.
     71b:	00 2e 01 00 2c 02 00 2a 02 00 29 02 00 2a 02 00     ....,..*..)..*..
     72b:	2c 02 00 2a 02 00 29 01 00 2a 01 00 29 01 00 2a     ,..*..)..*..)..*
     73b:	01 00 28 02 00 27 02 00 26 02 00 27 02 00 2a 02     ..(..'..&..'..*.
     74b:	00 2f 02 00 2c 01 00 2a 01 00 28 01 00 28 01 00     ./..,..*..(..(..
     75b:	23 02 00 25 01 00 27 01 00 2a 02 00 2c 02 00 2a     #..%..'..*..,..*
     76b:	02 00 2a 01 00 2c 01 00 2e 01 00 31 01 00 2e 02     ..*..,.....1....
     77b:	00 2a 04 00 00 04 00 23 02 00 2f 02 00 23 02 00     .*.....#../..#..
     78b:	2f 02 00 23 02 00 2f 02 00 2c 01 00 2a 01 00 27     /..#../..,..*..'
     79b:	01 00 25 01 00 23 02 00 2f 02 00 23 02 00 2f 02     ..%..#../..#../.
     7ab:	00 23 02 00 2f 02 00 2c 01 00 2a 01 00 26 01 00     .#../..,..*..&..
     7bb:	25 01 00 23 02 00 23 01 00 25 01 00 26 01 00 27     %..#..#..%..&..'
     7cb:	01 00 2a 02 00 25 02 00 25 01 00 27 01 00 28 01     ..*..%..%..'..(.
     7db:	00 2a 01 00 2c 01 00 2e 01 00 2f 02 00 2f 02 00     .*..,...../../..
     7eb:	2c 01 00 2a 01 00 27 01 00 25 01 00 23 04 00 00     ,..*..'..%..#...
     7fb:	02 00 2f 01 00 2f 01 00 2c 02 00 2a 02 00 27 02     ../../..,..*..'.
     80b:	00 2a 02 00 25 01 00 27 01 00 25 01 00 23 01 00     .*..%..'..%..#..
     81b:	20 02 00 1e 02 00 23 02 00 23 01 00 24 01 00 27      .....#..#..$..'
     82b:	01 00 2a 02 00 27 01 00 2a 02 00 2c 02 00 00 02     ..*..'..*..,....
     83b:	00 2a 02 00 2f 02 00 2f 02 00 2c 01 00 2a 01 00     .*../../..,..*..
     84b:	27 02 00 2a 02 00 2c 02 00 2a 01 00 27 01 00 23     '..*..,..*..'..#
     85b:	02 00 2a 02 00 2a 01 00 2c 01 00 2e 01 00 31 01     ..*..*..,.....1.
     86b:	00 2e 02 00 2a 04 00 00 04 00 2f 02 00 2f 02 00     ....*...../../..
     87b:	2c 01 00 2a 01 00 27 01 00 25 01 00 2a 02 00 2a     ,..*..'..%..*..*
     88b:	02 00 27 01 00 25 01 00 23 01 00 20 01 00 26 02     ..'..%..#.. ..&.
     89b:	00 26 02 00 28 01 00 26 01 00 23 01 00 20 01 00     .&..(..&..#.. ..
     8ab:	29 01 00 2a 01 00 29 01 00 2a 01 00 28 01 00 26     )..*..)..*..(..&
     8bb:	01 00 23 01 00 20 01 00 23 02 00 23 01 00 25 01     ..#.. ..#..#..%.
     8cb:	00 26 01 00 27 01 00 28 01 00 29 01 00 2a 02 00     .&..'..(..)..*..
     8db:	29 01 00 2a 01 00 2b 01 00 2c 01 00 2d 01 00 2e     )..*..+..,..-...
     8eb:	01 00 2f 02 00 2f 02 00 2c 01 00 2a 01 00 27 01     ../../..,..*..'.
     8fb:	00 25 01 00 23 04 00 2f 04 00 34 02 00 34 02 00     .%..#../..4..4..
     90b:	31 01 00 2f 01 00 2c 01 00 28 01 00 2f 02 00 31     1../..,..(../..1
     91b:	02 00 2f 01 00 2c 01 00 28 01 00 25 01 00 28 02     ../..,..(..%..(.
     92b:	00 28 01 00 2a 01 00 2c 01 00 2f 01 00 31 01 00     .(..*..,../..1..
     93b:	2f 01 00 34 04 00 00 01 00 2f 01 00 31 01 00 33     /..4...../..1..3
     94b:	01 00 34 02 00 34 02 00 31 01 00 2f 01 00 2c 01     ..4..4..1../..,.
     95b:	00 28 01 00 2f 02 00 31 02 00 2f 01 00 2c 01 00     .(../..1../..,..
     96b:	28 01 00 25 01 00 2f 02 00 2f 01 00 31 01 00 32     (..%../../..1..2
     97b:	01 00 33 01 00 36 01 00 33 01 00 2f 04 00 00 01     ..3..6..3../....
     98b:	00 23 01 00 25 01 00 27 01 00 28 02 00 28 01 00     .#..%..'..(..(..
     99b:	28 01 00 28 02 00 28 01 00 28 01 00 28 02 00 28     (..(..(..(..(..(
     9ab:	01 00 28 01 00 25 01 00 23 01 00 20 01 00 1c 01     ..(..%..#.. ....
     9bb:	00 21 02 00 21 01 00 21 01 00 21 02 00 21 01 00     .!..!..!..!..!..
     9cb:	21 01 00 25 02 00 28 01 00 2a 01 00 2b 01 00 28     !..%..(..*..+..(
     9db:	02 00 2a 01 00 2c 01 00 2b 01 00 2c 01 00 2b 01     ..*..,..+..,..+.
     9eb:	00 2c 01 00 2f 02 00 2b 01 00 2c 01 00 2f 01 00     .,../..+..,../..
     9fb:	2c 01 00 2a 01 00 28 01 00 25 01 00 00 02 00 31     ,..*..(..%.....1
     a0b:	01 00 2b 02 00 28 01 00 2a 02 00 28 02 00 00 04     ..+..(..*..(....
     a1b:	00 2f 04 00 34 02 00 34 02 00 31 01 00 2f 01 00     ./..4..4..1../..
     a2b:	2c 01 00 28 01 00 2f 02 00 31 02 00 2f 01 00 2c     ,..(../..1../..,
     a3b:	01 00 28 01 00 25 01 00 28 02 00 28 01 00 2a 01     ..(..%..(..(..*.
     a4b:	00 2c 01 00 2f 01 00 31 01 00 2f 01 00 34 04 00     .,../..1../..4..
     a5b:	00 01 00 2f 01 00 31 01 00 33 01 00 34 02 00 34     .../..1..3..4..4
     a6b:	02 00 31 01 00 2f 01 00 2c 01 00 28 01 00 2f 02     ..1../..,..(../.
     a7b:	00 31 02 00 2f 01 00 2c 01 00 28 01 00 25 01 00     .1../..,..(..%..
     a8b:	2f 02 00 2f 01 00 31 01 00 32 01 00 33 01 00 36     /../..1..2..3..6
     a9b:	01 00 33 01 00 2f 04 00 00 01 00 23 01 00 25 01     ..3../.....#..%.
     aab:	00 27 01 00 28 02 00 28 01 00 28 01 00 28 02 00     .'..(..(..(..(..
     abb:	28 01 00 28 01 00 28 02 00 28 01 00 28 01 00 25     (..(..(..(..(..%
     acb:	01 00 23 01 00 20 01 00 1c 01 00 21 02 00 21 01     ..#.. .....!..!.
     adb:	00 21 01 00 21 02 00 21 01 00 21 01 00 25 02 00     .!..!..!..!..%..
     aeb:	28 01 00 2a 01 00 2b 01 00 28 02 00 2a 01 00 2c     (..*..+..(..*..,
     afb:	01 00 2b 01 00 2c 01 00 2b 01 00 2c 01 00 2f 02     ..+..,..+..,../.
     b0b:	00 2b 01 00 2c 01 00 2f 01 00 2c 01 00 2a 01 00     .+..,../..,..*..
     b1b:	28 01 00 25 01 00 00 02 00 31 01 00 2b 02 00 28     (..%.....1..+..(
     b2b:	01 00 2a 02 00 28 02 00 2f 08 00 34 02 00 34 02     ..*..(../..4..4.
     b3b:	00 31 01 00 2f 03 00 28 02 00 28 02 00 25 01 00     .1../..(..(..%..
     b4b:	23 03 00 31 01 00 2b 02 00 28 01 00 2a 02 00 28     #..1..+..(..*..(
     b5b:	02 00 00 02 00 23 02 00 28 04 00 40 00 00           .....#..(..@..

00000b69 <_ZL7sineLUT>:
     b69:	00 03 06 09 0c 0f 12 15 18 1c 1f 22 25 28 2b 2e     ..........."%(+.
     b79:	30 33 36 39 3c 3f 41 44 47 49 4c 4e 51 53 55 58     0369<?ADGILNQSUX
     b89:	5a 5c 5e 60 62 64 66 68 6a 6c 6d 6f 70 72 73 75     Z\^`bdfhjlmoprsu
     b99:	76 77 78 79 7a 7b 7c 7c 7d 7e 7e 7f 7f 7f 7f 7f     vwxyz{||}~~.....
     ba9:	7f 7f 7f 7f 7f 7f 7e 7e 7d 7c 7c 7b 7a 79 78 77     ......~~}||{zyxw
     bb9:	76 75 73 72 70 6f 6d 6c 6a 68 66 64 62 60 5e 5c     vusrpomljhfdb`^\
     bc9:	5a 58 55 53 51 4e 4c 49 47 44 41 3f 3c 39 36 33     ZXUSQNLIGDA?<963
     bd9:	30 2e 2b 28 25 22 1f 1c 18 15 12 0f 0c 09 06 03     0.+(%"..........
     be9:	00 fd fa f7 f4 f1 ee eb e8 e4 e1 de db d8 d5 d2     ................
     bf9:	d0 cd ca c7 c4 c1 bf bc b9 b7 b4 b2 af ad ab a8     ................
     c09:	a6 a4 a2 a0 9e 9c 9a 98 96 94 93 91 90 8e 8d 8b     ................
     c19:	8a 89 88 87 86 85 84 84 83 82 82 81 81 81 81 81     ................
     c29:	80 81 81 81 81 81 82 82 83 84 84 85 86 87 88 89     ................
     c39:	8a 8b 8d 8e 90 91 93 94 96 98 9a 9c 9e a0 a2 a4     ................
     c49:	a6 a8 ab ad af b2 b4 b7 b9 bc bf c1 c4 c7 ca cd     ................
     c59:	d0 d2 d5 d8 db de e1 e4 e8 eb ee f1 f4 f7 fa fd     ................

00000c69 <_ZL7freqLUT>:
     c69:	00 00 71 01 87 01 9e 01 b6 01 d1 01 ec 01 09 02     ..q.............
     c79:	29 02 49 02 6c 02 91 02 b8 02 e2 02 0e 03 3c 03     ).I.l.........<.
     c89:	6d 03 a2 03 d9 03 13 04 52 04 93 04 d9 04 23 05     m.......R.....#.
     c99:	71 05 c4 05 1c 06 79 06 db 06 44 07 b2 07 27 08     q.....y...D...'.
     ca9:	a4 08 27 09 b2 09 46 0a e3 0a 88 0b 38 0c f2 0c     ..'...F.....8...
     cb9:	b7 0d 88 0e 65 0f 4f 10 48 11 4f 12 65 13 8d 14     ....e.O.H.O.e...
     cc9:	c6 15 11 17 70 18 e4 19 6e 1b 10 1d cb 1e 9f 20     ....p...n...... 
     cd9:	90 22 9e 24 cb 26 1a 29 8c 2b 23 2e e1 30 c9 33     .".$.&.).+#..0.3
	...

00000cea <__ctors_start>:
     cea:	5a 09       	sbc	r21, r10

00000cec <__ctors_end>:
     cec:	73 09       	sbc	r23, r3

00000cee <__dtors_end>:
     cee:	11 24       	eor	r1, r1
     cf0:	1f be       	out	0x3f, r1	; 63
     cf2:	cf ef       	ldi	r28, 0xFF	; 255
     cf4:	d8 e0       	ldi	r29, 0x08	; 8
     cf6:	de bf       	out	0x3e, r29	; 62
     cf8:	cd bf       	out	0x3d, r28	; 61

00000cfa <__do_copy_data>:
     cfa:	11 e0       	ldi	r17, 0x01	; 1
     cfc:	a0 e0       	ldi	r26, 0x00	; 0
     cfe:	b1 e0       	ldi	r27, 0x01	; 1
     d00:	ec e2       	ldi	r30, 0x2C	; 44
     d02:	f3 e1       	ldi	r31, 0x13	; 19
     d04:	02 c0       	rjmp	.+4      	; 0xd0a <__do_copy_data+0x10>
     d06:	05 90       	lpm	r0, Z+
     d08:	0d 92       	st	X+, r0
     d0a:	a2 30       	cpi	r26, 0x02	; 2
     d0c:	b1 07       	cpc	r27, r17
     d0e:	d9 f7       	brne	.-10     	; 0xd06 <__do_copy_data+0xc>

00000d10 <__do_clear_bss>:
     d10:	21 e0       	ldi	r18, 0x01	; 1
     d12:	a2 e0       	ldi	r26, 0x02	; 2
     d14:	b1 e0       	ldi	r27, 0x01	; 1
     d16:	01 c0       	rjmp	.+2      	; 0xd1a <.do_clear_bss_start>

00000d18 <.do_clear_bss_loop>:
     d18:	1d 92       	st	X+, r1

00000d1a <.do_clear_bss_start>:
     d1a:	aa 33       	cpi	r26, 0x3A	; 58
     d1c:	b2 07       	cpc	r27, r18
     d1e:	e1 f7       	brne	.-8      	; 0xd18 <.do_clear_bss_loop>

00000d20 <__do_global_ctors>:
     d20:	16 e0       	ldi	r17, 0x06	; 6
     d22:	c6 e7       	ldi	r28, 0x76	; 118
     d24:	d6 e0       	ldi	r29, 0x06	; 6
     d26:	04 c0       	rjmp	.+8      	; 0xd30 <__do_global_ctors+0x10>
     d28:	21 97       	sbiw	r28, 0x01	; 1
     d2a:	fe 01       	movw	r30, r28
     d2c:	0e 94 83 09 	call	0x1306	; 0x1306 <__tablejump2__>
     d30:	c5 37       	cpi	r28, 0x75	; 117
     d32:	d1 07       	cpc	r29, r17
     d34:	c9 f7       	brne	.-14     	; 0xd28 <__do_global_ctors+0x8>
     d36:	0e 94 e9 07 	call	0xfd2	; 0xfd2 <main>
     d3a:	0c 94 89 09 	jmp	0x1312	; 0x1312 <__do_global_dtors>

00000d3e <__bad_interrupt>:
     d3e:	0c 94 00 00 	jmp	0	; 0x0 <__vectors>

00000d42 <_ZN6CAudioC1Ev>:
     d42:	fc 01       	movw	r30, r24
     d44:	12 82       	std	Z+2, r1	; 0x02
     d46:	11 82       	std	Z+1, r1	; 0x01
     d48:	10 86       	std	Z+8, r1	; 0x08
     d4a:	17 82       	std	Z+7, r1	; 0x07
     d4c:	10 82       	st	Z, r1
     d4e:	14 82       	std	Z+4, r1	; 0x04
     d50:	13 82       	std	Z+3, r1	; 0x03
     d52:	12 86       	std	Z+10, r1	; 0x0a
     d54:	11 86       	std	Z+9, r1	; 0x09
     d56:	08 95       	ret

00000d58 <_ZN6CAudioD1Ev>:
     d58:	08 95       	ret

00000d5a <_ZN6CAudio4initEv>:
     d5a:	10 92 80 00 	sts	0x0080, r1	; 0x800080 <__TEXT_REGION_LENGTH__+0x7e0080>
     d5e:	89 e0       	ldi	r24, 0x09	; 9
     d60:	80 93 81 00 	sts	0x0081, r24	; 0x800081 <__TEXT_REGION_LENGTH__+0x7e0081>
     d64:	81 e4       	ldi	r24, 0x41	; 65
     d66:	93 e0       	ldi	r25, 0x03	; 3
     d68:	90 93 89 00 	sts	0x0089, r25	; 0x800089 <__TEXT_REGION_LENGTH__+0x7e0089>
     d6c:	80 93 88 00 	sts	0x0088, r24	; 0x800088 <__TEXT_REGION_LENGTH__+0x7e0088>
     d70:	82 e0       	ldi	r24, 0x02	; 2
     d72:	80 93 6f 00 	sts	0x006F, r24	; 0x80006f <__TEXT_REGION_LENGTH__+0x7e006f>
     d76:	83 e2       	ldi	r24, 0x23	; 35
     d78:	80 93 b0 00 	sts	0x00B0, r24	; 0x8000b0 <__TEXT_REGION_LENGTH__+0x7e00b0>
     d7c:	81 e0       	ldi	r24, 0x01	; 1
     d7e:	80 93 b1 00 	sts	0x00B1, r24	; 0x8000b1 <__TEXT_REGION_LENGTH__+0x7e00b1>
     d82:	80 e8       	ldi	r24, 0x80	; 128
     d84:	80 93 b4 00 	sts	0x00B4, r24	; 0x8000b4 <__TEXT_REGION_LENGTH__+0x7e00b4>
     d88:	08 95       	ret

00000d8a <_ZN6CAudio4stopEv>:
     d8a:	fc 01       	movw	r30, r24
     d8c:	10 86       	std	Z+8, r1	; 0x08
     d8e:	17 82       	std	Z+7, r1	; 0x07
     d90:	80 e8       	ldi	r24, 0x80	; 128
     d92:	80 93 b4 00 	sts	0x00B4, r24	; 0x8000b4 <__TEXT_REGION_LENGTH__+0x7e00b4>
     d96:	08 95       	ret

00000d98 <_ZN6CAudio7onTimerEv>:
     d98:	dc 01       	movw	r26, r24
     d9a:	17 96       	adiw	r26, 0x07	; 7
     d9c:	8d 91       	ld	r24, X+
     d9e:	9c 91       	ld	r25, X
     da0:	18 97       	sbiw	r26, 0x08	; 8
     da2:	11 96       	adiw	r26, 0x01	; 1
     da4:	ed 91       	ld	r30, X+
     da6:	fc 91       	ld	r31, X
     da8:	12 97       	sbiw	r26, 0x02	; 2
     daa:	e8 0f       	add	r30, r24
     dac:	f9 1f       	adc	r31, r25
     dae:	12 96       	adiw	r26, 0x02	; 2
     db0:	fc 93       	st	X, r31
     db2:	ee 93       	st	-X, r30
     db4:	11 97       	sbiw	r26, 0x01	; 1
     db6:	ef 2f       	mov	r30, r31
     db8:	ff 27       	eor	r31, r31
     dba:	e7 59       	subi	r30, 0x97	; 151
     dbc:	f4 4f       	sbci	r31, 0xF4	; 244
     dbe:	e4 91       	lpm	r30, Z
     dc0:	89 2b       	or	r24, r25
     dc2:	51 f0       	breq	.+20     	; 0xdd8 <_ZN6CAudio7onTimerEv+0x40>
     dc4:	0e 2e       	mov	r0, r30
     dc6:	00 0c       	add	r0, r0
     dc8:	ff 0b       	sbc	r31, r31
     dca:	fe 5f       	subi	r31, 0xFE	; 254
     dcc:	f6 95       	lsr	r31
     dce:	e7 95       	ror	r30
     dd0:	f6 95       	lsr	r31
     dd2:	e7 95       	ror	r30
     dd4:	e0 93 b4 00 	sts	0x00B4, r30	; 0x8000b4 <__TEXT_REGION_LENGTH__+0x7e00b4>
     dd8:	08 95       	ret

00000dda <_ZN6CAudio8stopSongEv>:
     dda:	fc 01       	movw	r30, r24
     ddc:	10 82       	st	Z, r1
     dde:	80 e8       	ldi	r24, 0x80	; 128
     de0:	80 93 b4 00 	sts	0x00B4, r24	; 0x8000b4 <__TEXT_REGION_LENGTH__+0x7e00b4>
     de4:	08 95       	ret

00000de6 <_ZN6CAudio9playSong1Ev>:
     de6:	fc 01       	movw	r30, r24
     de8:	80 81       	ld	r24, Z
     dea:	81 11       	cpse	r24, r1
     dec:	0a c0       	rjmp	.+20     	; 0xe02 <_ZN6CAudio9playSong1Ev+0x1c>
     dee:	14 82       	std	Z+4, r1	; 0x04
     df0:	13 82       	std	Z+3, r1	; 0x03
     df2:	16 82       	std	Z+6, r1	; 0x06
     df4:	15 82       	std	Z+5, r1	; 0x05
     df6:	81 e0       	ldi	r24, 0x01	; 1
     df8:	80 83       	st	Z, r24
     dfa:	8b e8       	ldi	r24, 0x8B	; 139
     dfc:	94 e0       	ldi	r25, 0x04	; 4
     dfe:	92 87       	std	Z+10, r25	; 0x0a
     e00:	81 87       	std	Z+9, r24	; 0x09
     e02:	08 95       	ret

00000e04 <_ZN6CAudio9playSong2Ev>:
     e04:	fc 01       	movw	r30, r24
     e06:	80 81       	ld	r24, Z
     e08:	81 11       	cpse	r24, r1
     e0a:	0a c0       	rjmp	.+20     	; 0xe20 <_ZN6CAudio9playSong2Ev+0x1c>
     e0c:	14 82       	std	Z+4, r1	; 0x04
     e0e:	13 82       	std	Z+3, r1	; 0x03
     e10:	16 82       	std	Z+6, r1	; 0x06
     e12:	15 82       	std	Z+5, r1	; 0x05
     e14:	81 e0       	ldi	r24, 0x01	; 1
     e16:	80 83       	st	Z, r24
     e18:	88 e6       	ldi	r24, 0x68	; 104
     e1a:	90 e0       	ldi	r25, 0x00	; 0
     e1c:	92 87       	std	Z+10, r25	; 0x0a
     e1e:	81 87       	std	Z+9, r24	; 0x09
     e20:	08 95       	ret

00000e22 <_ZN6CAudio4stepEv>:
     e22:	dc 01       	movw	r26, r24
     e24:	8c 91       	ld	r24, X
     e26:	88 23       	and	r24, r24
     e28:	09 f4       	brne	.+2      	; 0xe2c <_ZN6CAudio4stepEv+0xa>
     e2a:	61 c0       	rjmp	.+194    	; 0xeee <_ZN6CAudio4stepEv+0xcc>
     e2c:	19 96       	adiw	r26, 0x09	; 9
     e2e:	ed 91       	ld	r30, X+
     e30:	fc 91       	ld	r31, X
     e32:	1a 97       	sbiw	r26, 0x0a	; 10
     e34:	30 97       	sbiw	r30, 0x00	; 0
     e36:	09 f4       	brne	.+2      	; 0xe3a <_ZN6CAudio4stepEv+0x18>
     e38:	5a c0       	rjmp	.+180    	; 0xeee <_ZN6CAudio4stepEv+0xcc>
     e3a:	15 96       	adiw	r26, 0x05	; 5
     e3c:	2d 91       	ld	r18, X+
     e3e:	3c 91       	ld	r19, X
     e40:	16 97       	sbiw	r26, 0x06	; 6
     e42:	21 15       	cp	r18, r1
     e44:	31 05       	cpc	r19, r1
     e46:	09 f0       	breq	.+2      	; 0xe4a <_ZN6CAudio4stepEv+0x28>
     e48:	4c c0       	rjmp	.+152    	; 0xee2 <_ZN6CAudio4stepEv+0xc0>
     e4a:	80 91 02 01 	lds	r24, 0x0102	; 0x800102 <__data_end>
     e4e:	81 11       	cpse	r24, r1
     e50:	0d c0       	rjmp	.+26     	; 0xe6c <_ZN6CAudio4stepEv+0x4a>
     e52:	18 96       	adiw	r26, 0x08	; 8
     e54:	1c 92       	st	X, r1
     e56:	1e 92       	st	-X, r1
     e58:	17 97       	sbiw	r26, 0x07	; 7
     e5a:	81 e0       	ldi	r24, 0x01	; 1
     e5c:	90 e0       	ldi	r25, 0x00	; 0
     e5e:	16 96       	adiw	r26, 0x06	; 6
     e60:	9c 93       	st	X, r25
     e62:	8e 93       	st	-X, r24
     e64:	15 97       	sbiw	r26, 0x05	; 5
     e66:	80 93 02 01 	sts	0x0102, r24	; 0x800102 <__data_end>
     e6a:	08 95       	ret
     e6c:	13 96       	adiw	r26, 0x03	; 3
     e6e:	2d 91       	ld	r18, X+
     e70:	3c 91       	ld	r19, X
     e72:	14 97       	sbiw	r26, 0x04	; 4
     e74:	c9 01       	movw	r24, r18
     e76:	88 0f       	add	r24, r24
     e78:	99 1f       	adc	r25, r25
     e7a:	82 0f       	add	r24, r18
     e7c:	93 1f       	adc	r25, r19
     e7e:	8e 0f       	add	r24, r30
     e80:	9f 1f       	adc	r25, r31
     e82:	fc 01       	movw	r30, r24
     e84:	44 91       	lpm	r20, Z
     e86:	40 34       	cpi	r20, 0x40	; 64
     e88:	78 f0       	brcs	.+30     	; 0xea8 <_ZN6CAudio4stepEv+0x86>
     e8a:	14 96       	adiw	r26, 0x04	; 4
     e8c:	1c 92       	st	X, r1
     e8e:	1e 92       	st	-X, r1
     e90:	13 97       	sbiw	r26, 0x03	; 3
     e92:	18 96       	adiw	r26, 0x08	; 8
     e94:	1c 92       	st	X, r1
     e96:	1e 92       	st	-X, r1
     e98:	17 97       	sbiw	r26, 0x07	; 7
     e9a:	81 e0       	ldi	r24, 0x01	; 1
     e9c:	90 e0       	ldi	r25, 0x00	; 0
     e9e:	16 96       	adiw	r26, 0x06	; 6
     ea0:	9c 93       	st	X, r25
     ea2:	8e 93       	st	-X, r24
     ea4:	15 97       	sbiw	r26, 0x05	; 5
     ea6:	08 95       	ret
     ea8:	e4 2f       	mov	r30, r20
     eaa:	f0 e0       	ldi	r31, 0x00	; 0
     eac:	ee 0f       	add	r30, r30
     eae:	ff 1f       	adc	r31, r31
     eb0:	e7 59       	subi	r30, 0x97	; 151
     eb2:	f3 4f       	sbci	r31, 0xF3	; 243
     eb4:	45 91       	lpm	r20, Z+
     eb6:	54 91       	lpm	r21, Z
     eb8:	18 96       	adiw	r26, 0x08	; 8
     eba:	5c 93       	st	X, r21
     ebc:	4e 93       	st	-X, r20
     ebe:	17 97       	sbiw	r26, 0x07	; 7
     ec0:	fc 01       	movw	r30, r24
     ec2:	31 96       	adiw	r30, 0x01	; 1
     ec4:	85 91       	lpm	r24, Z+
     ec6:	94 91       	lpm	r25, Z
     ec8:	16 96       	adiw	r26, 0x06	; 6
     eca:	9c 93       	st	X, r25
     ecc:	8e 93       	st	-X, r24
     ece:	15 97       	sbiw	r26, 0x05	; 5
     ed0:	10 92 02 01 	sts	0x0102, r1	; 0x800102 <__data_end>
     ed4:	2f 5f       	subi	r18, 0xFF	; 255
     ed6:	3f 4f       	sbci	r19, 0xFF	; 255
     ed8:	14 96       	adiw	r26, 0x04	; 4
     eda:	3c 93       	st	X, r19
     edc:	2e 93       	st	-X, r18
     ede:	13 97       	sbiw	r26, 0x03	; 3
     ee0:	08 95       	ret
     ee2:	21 50       	subi	r18, 0x01	; 1
     ee4:	31 09       	sbc	r19, r1
     ee6:	16 96       	adiw	r26, 0x06	; 6
     ee8:	3c 93       	st	X, r19
     eea:	2e 93       	st	-X, r18
     eec:	15 97       	sbiw	r26, 0x05	; 5
     eee:	08 95       	ret

00000ef0 <_ZN4CLEDC1EPVhh>:
     ef0:	fc 01       	movw	r30, r24
     ef2:	71 83       	std	Z+1, r23	; 0x01
     ef4:	60 83       	st	Z, r22
     ef6:	42 83       	std	Z+2, r20	; 0x02
     ef8:	17 82       	std	Z+7, r1	; 0x07
     efa:	10 86       	std	Z+8, r1	; 0x08
     efc:	11 86       	std	Z+9, r1	; 0x09
     efe:	12 86       	std	Z+10, r1	; 0x0a
     f00:	13 82       	std	Z+3, r1	; 0x03
     f02:	14 82       	std	Z+4, r1	; 0x04
     f04:	15 82       	std	Z+5, r1	; 0x05
     f06:	16 82       	std	Z+6, r1	; 0x06
     f08:	08 95       	ret

00000f0a <_ZN4CLEDD1Ev>:
     f0a:	08 95       	ret

00000f0c <_ZN4CLED2onEv>:
     f0c:	fc 01       	movw	r30, r24
     f0e:	a0 81       	ld	r26, Z
     f10:	b1 81       	ldd	r27, Z+1	; 0x01
     f12:	8c 91       	ld	r24, X
     f14:	21 e0       	ldi	r18, 0x01	; 1
     f16:	30 e0       	ldi	r19, 0x00	; 0
     f18:	02 80       	ldd	r0, Z+2	; 0x02
     f1a:	02 c0       	rjmp	.+4      	; 0xf20 <_ZN4CLED2onEv+0x14>
     f1c:	22 0f       	add	r18, r18
     f1e:	33 1f       	adc	r19, r19
     f20:	0a 94       	dec	r0
     f22:	e2 f7       	brpl	.-8      	; 0xf1c <_ZN4CLED2onEv+0x10>
     f24:	28 2b       	or	r18, r24
     f26:	2c 93       	st	X, r18
     f28:	17 82       	std	Z+7, r1	; 0x07
     f2a:	10 86       	std	Z+8, r1	; 0x08
     f2c:	11 86       	std	Z+9, r1	; 0x09
     f2e:	12 86       	std	Z+10, r1	; 0x0a
     f30:	08 95       	ret

00000f32 <_ZN4CLED3offEv>:
     f32:	fc 01       	movw	r30, r24
     f34:	a0 81       	ld	r26, Z
     f36:	b1 81       	ldd	r27, Z+1	; 0x01
     f38:	8c 91       	ld	r24, X
     f3a:	21 e0       	ldi	r18, 0x01	; 1
     f3c:	30 e0       	ldi	r19, 0x00	; 0
     f3e:	02 80       	ldd	r0, Z+2	; 0x02
     f40:	02 c0       	rjmp	.+4      	; 0xf46 <_ZN4CLED3offEv+0x14>
     f42:	22 0f       	add	r18, r18
     f44:	33 1f       	adc	r19, r19
     f46:	0a 94       	dec	r0
     f48:	e2 f7       	brpl	.-8      	; 0xf42 <_ZN4CLED3offEv+0x10>
     f4a:	20 95       	com	r18
     f4c:	28 23       	and	r18, r24
     f4e:	2c 93       	st	X, r18
     f50:	17 82       	std	Z+7, r1	; 0x07
     f52:	10 86       	std	Z+8, r1	; 0x08
     f54:	11 86       	std	Z+9, r1	; 0x09
     f56:	12 86       	std	Z+10, r1	; 0x0a
     f58:	08 95       	ret

00000f5a <_ZN4CLED8setDelayEm>:
     f5a:	fc 01       	movw	r30, r24
     f5c:	47 83       	std	Z+7, r20	; 0x07
     f5e:	50 87       	std	Z+8, r21	; 0x08
     f60:	61 87       	std	Z+9, r22	; 0x09
     f62:	72 87       	std	Z+10, r23	; 0x0a
     f64:	08 95       	ret

00000f66 <_ZN4CLED4stepEm>:
     f66:	cf 92       	push	r12
     f68:	df 92       	push	r13
     f6a:	ef 92       	push	r14
     f6c:	ff 92       	push	r15
     f6e:	0f 93       	push	r16
     f70:	1f 93       	push	r17
     f72:	fc 01       	movw	r30, r24
     f74:	87 81       	ldd	r24, Z+7	; 0x07
     f76:	90 85       	ldd	r25, Z+8	; 0x08
     f78:	a1 85       	ldd	r26, Z+9	; 0x09
     f7a:	b2 85       	ldd	r27, Z+10	; 0x0a
     f7c:	00 97       	sbiw	r24, 0x00	; 0
     f7e:	a1 05       	cpc	r26, r1
     f80:	b1 05       	cpc	r27, r1
     f82:	01 f1       	breq	.+64     	; 0xfc4 <_ZN4CLED4stepEm+0x5e>
     f84:	03 81       	ldd	r16, Z+3	; 0x03
     f86:	14 81       	ldd	r17, Z+4	; 0x04
     f88:	25 81       	ldd	r18, Z+5	; 0x05
     f8a:	36 81       	ldd	r19, Z+6	; 0x06
     f8c:	6a 01       	movw	r12, r20
     f8e:	7b 01       	movw	r14, r22
     f90:	c0 1a       	sub	r12, r16
     f92:	d1 0a       	sbc	r13, r17
     f94:	e2 0a       	sbc	r14, r18
     f96:	f3 0a       	sbc	r15, r19
     f98:	c8 16       	cp	r12, r24
     f9a:	d9 06       	cpc	r13, r25
     f9c:	ea 06       	cpc	r14, r26
     f9e:	fb 06       	cpc	r15, r27
     fa0:	88 f0       	brcs	.+34     	; 0xfc4 <_ZN4CLED4stepEm+0x5e>
     fa2:	a0 81       	ld	r26, Z
     fa4:	b1 81       	ldd	r27, Z+1	; 0x01
     fa6:	2c 91       	ld	r18, X
     fa8:	81 e0       	ldi	r24, 0x01	; 1
     faa:	90 e0       	ldi	r25, 0x00	; 0
     fac:	02 80       	ldd	r0, Z+2	; 0x02
     fae:	02 c0       	rjmp	.+4      	; 0xfb4 <_ZN4CLED4stepEm+0x4e>
     fb0:	88 0f       	add	r24, r24
     fb2:	99 1f       	adc	r25, r25
     fb4:	0a 94       	dec	r0
     fb6:	e2 f7       	brpl	.-8      	; 0xfb0 <_ZN4CLED4stepEm+0x4a>
     fb8:	82 27       	eor	r24, r18
     fba:	8c 93       	st	X, r24
     fbc:	43 83       	std	Z+3, r20	; 0x03
     fbe:	54 83       	std	Z+4, r21	; 0x04
     fc0:	65 83       	std	Z+5, r22	; 0x05
     fc2:	76 83       	std	Z+6, r23	; 0x06
     fc4:	1f 91       	pop	r17
     fc6:	0f 91       	pop	r16
     fc8:	ff 90       	pop	r15
     fca:	ef 90       	pop	r14
     fcc:	df 90       	pop	r13
     fce:	cf 90       	pop	r12
     fd0:	08 95       	ret

00000fd2 <main>:
     fd2:	87 e0       	ldi	r24, 0x07	; 7
     fd4:	84 b9       	out	0x04, r24	; 4
     fd6:	17 b8       	out	0x07, r1	; 7
     fd8:	88 ef       	ldi	r24, 0xF8	; 248
     fda:	8a b9       	out	0x0a, r24	; 10
     fdc:	5a 9a       	sbi	0x0b, 2	; 11
     fde:	2a 9a       	sbi	0x05, 2	; 5
     fe0:	5c 9a       	sbi	0x0b, 4	; 11
     fe2:	82 e0       	ldi	r24, 0x02	; 2
     fe4:	84 bd       	out	0x24, r24	; 36
     fe6:	93 e0       	ldi	r25, 0x03	; 3
     fe8:	95 bd       	out	0x25, r25	; 37
     fea:	9c e7       	ldi	r25, 0x7C	; 124
     fec:	97 bd       	out	0x27, r25	; 39
     fee:	80 93 6e 00 	sts	0x006E, r24	; 0x80006e <__TEXT_REGION_LENGTH__+0x7e006e>
     ff2:	85 e2       	ldi	r24, 0x25	; 37
     ff4:	91 e0       	ldi	r25, 0x01	; 1
     ff6:	0e 94 ad 06 	call	0xd5a	; 0xd5a <_ZN6CAudio4initEv>
     ffa:	84 e0       	ldi	r24, 0x04	; 4
     ffc:	80 93 03 01 	sts	0x0103, r24	; 0x800103 <state>
    1000:	78 94       	sei
    1002:	c2 e0       	ldi	r28, 0x02	; 2
    1004:	d2 e0       	ldi	r29, 0x02	; 2
    1006:	80 e1       	ldi	r24, 0x10	; 16
    1008:	c8 2e       	mov	r12, r24
    100a:	87 e2       	ldi	r24, 0x27	; 39
    100c:	d8 2e       	mov	r13, r24
    100e:	e1 2c       	mov	r14, r1
    1010:	f1 2c       	mov	r15, r1
    1012:	11 e0       	ldi	r17, 0x01	; 1
    1014:	03 e0       	ldi	r16, 0x03	; 3
    1016:	80 91 03 01 	lds	r24, 0x0103	; 0x800103 <state>
    101a:	81 30       	cpi	r24, 0x01	; 1
    101c:	d9 f1       	breq	.+118    	; 0x1094 <main+0xc2>
    101e:	38 f0       	brcs	.+14     	; 0x102e <main+0x5c>
    1020:	82 30       	cpi	r24, 0x02	; 2
    1022:	09 f4       	brne	.+2      	; 0x1026 <main+0x54>
    1024:	46 c0       	rjmp	.+140    	; 0x10b2 <main+0xe0>
    1026:	83 30       	cpi	r24, 0x03	; 3
    1028:	09 f4       	brne	.+2      	; 0x102c <main+0x5a>
    102a:	64 c0       	rjmp	.+200    	; 0x10f4 <main+0x122>
    102c:	76 c0       	rjmp	.+236    	; 0x111a <main+0x148>
    102e:	5c 98       	cbi	0x0b, 4	; 11
    1030:	2a 9a       	sbi	0x05, 2	; 5
    1032:	8a e1       	ldi	r24, 0x1A	; 26
    1034:	91 e0       	ldi	r25, 0x01	; 1
    1036:	0e 94 99 07 	call	0xf32	; 0xf32 <_ZN4CLED3offEv>
    103a:	8f e0       	ldi	r24, 0x0F	; 15
    103c:	91 e0       	ldi	r25, 0x01	; 1
    103e:	0e 94 86 07 	call	0xf0c	; 0xf0c <_ZN4CLED2onEv>
    1042:	84 e0       	ldi	r24, 0x04	; 4
    1044:	91 e0       	ldi	r25, 0x01	; 1
    1046:	0e 94 99 07 	call	0xf32	; 0xf32 <_ZN4CLED3offEv>
    104a:	85 e2       	ldi	r24, 0x25	; 37
    104c:	91 e0       	ldi	r25, 0x01	; 1
    104e:	32 99       	sbic	0x06, 2	; 6
    1050:	03 c0       	rjmp	.+6      	; 0x1058 <main+0x86>
    1052:	0e 94 f3 06 	call	0xde6	; 0xde6 <_ZN6CAudio9playSong1Ev>
    1056:	02 c0       	rjmp	.+4      	; 0x105c <main+0x8a>
    1058:	0e 94 ed 06 	call	0xdda	; 0xdda <_ZN6CAudio8stopSongEv>
    105c:	4a 99       	sbic	0x09, 2	; 9
    105e:	77 c0       	rjmp	.+238    	; 0x114e <main+0x17c>
    1060:	5c 9a       	sbi	0x0b, 4	; 11
    1062:	2a 98       	cbi	0x05, 2	; 5
    1064:	28 98       	cbi	0x05, 0	; 5
    1066:	85 e2       	ldi	r24, 0x25	; 37
    1068:	91 e0       	ldi	r25, 0x01	; 1
    106a:	0e 94 c5 06 	call	0xd8a	; 0xd8a <_ZN6CAudio4stopEv>
    106e:	85 e2       	ldi	r24, 0x25	; 37
    1070:	91 e0       	ldi	r25, 0x01	; 1
    1072:	0e 94 02 07 	call	0xe04	; 0xe04 <_ZN6CAudio9playSong2Ev>
    1076:	10 93 03 01 	sts	0x0103, r17	; 0x800103 <state>
    107a:	4c e2       	ldi	r20, 0x2C	; 44
    107c:	51 e0       	ldi	r21, 0x01	; 1
    107e:	60 e0       	ldi	r22, 0x00	; 0
    1080:	70 e0       	ldi	r23, 0x00	; 0
    1082:	8a e1       	ldi	r24, 0x1A	; 26
    1084:	91 e0       	ldi	r25, 0x01	; 1
    1086:	0e 94 ad 07 	call	0xf5a	; 0xf5a <_ZN4CLED8setDelayEm>
    108a:	8f e0       	ldi	r24, 0x0F	; 15
    108c:	91 e0       	ldi	r25, 0x01	; 1
    108e:	0e 94 99 07 	call	0xf32	; 0xf32 <_ZN4CLED3offEv>
    1092:	5d c0       	rjmp	.+186    	; 0x114e <main+0x17c>
    1094:	28 98       	cbi	0x05, 0	; 5
    1096:	35 9b       	sbis	0x06, 5	; 6
    1098:	51 c0       	rjmp	.+162    	; 0x113c <main+0x16a>
    109a:	d0 93 03 01 	sts	0x0103, r29	; 0x800103 <state>
    109e:	2a 9a       	sbi	0x05, 2	; 5
    10a0:	c0 92 30 01 	sts	0x0130, r12	; 0x800130 <windowTimeout>
    10a4:	d0 92 31 01 	sts	0x0131, r13	; 0x800131 <windowTimeout+0x1>
    10a8:	e0 92 32 01 	sts	0x0132, r14	; 0x800132 <windowTimeout+0x2>
    10ac:	f0 92 33 01 	sts	0x0133, r15	; 0x800133 <windowTimeout+0x3>
    10b0:	4e c0       	rjmp	.+156    	; 0x114e <main+0x17c>
    10b2:	8a e1       	ldi	r24, 0x1A	; 26
    10b4:	91 e0       	ldi	r25, 0x01	; 1
    10b6:	0e 94 86 07 	call	0xf0c	; 0xf0c <_ZN4CLED2onEv>
    10ba:	80 91 30 01 	lds	r24, 0x0130	; 0x800130 <windowTimeout>
    10be:	90 91 31 01 	lds	r25, 0x0131	; 0x800131 <windowTimeout+0x1>
    10c2:	a0 91 32 01 	lds	r26, 0x0132	; 0x800132 <windowTimeout+0x2>
    10c6:	b0 91 33 01 	lds	r27, 0x0133	; 0x800133 <windowTimeout+0x3>
    10ca:	89 2b       	or	r24, r25
    10cc:	8a 2b       	or	r24, r26
    10ce:	8b 2b       	or	r24, r27
    10d0:	f1 f5       	brne	.+124    	; 0x114e <main+0x17c>
    10d2:	00 93 03 01 	sts	0x0103, r16	; 0x800103 <state>
    10d6:	8a e1       	ldi	r24, 0x1A	; 26
    10d8:	91 e0       	ldi	r25, 0x01	; 1
    10da:	0e 94 99 07 	call	0xf32	; 0xf32 <_ZN4CLED3offEv>
    10de:	4c e2       	ldi	r20, 0x2C	; 44
    10e0:	51 e0       	ldi	r21, 0x01	; 1
    10e2:	60 e0       	ldi	r22, 0x00	; 0
    10e4:	70 e0       	ldi	r23, 0x00	; 0
    10e6:	8f e0       	ldi	r24, 0x0F	; 15
    10e8:	91 e0       	ldi	r25, 0x01	; 1
    10ea:	0e 94 ad 07 	call	0xf5a	; 0xf5a <_ZN4CLED8setDelayEm>
    10ee:	2a 98       	cbi	0x05, 2	; 5
    10f0:	28 9a       	sbi	0x05, 0	; 5
    10f2:	2d c0       	rjmp	.+90     	; 0x114e <main+0x17c>
    10f4:	28 9a       	sbi	0x05, 0	; 5
    10f6:	84 e0       	ldi	r24, 0x04	; 4
    10f8:	91 e0       	ldi	r25, 0x01	; 1
    10fa:	33 9b       	sbis	0x06, 3	; 6
    10fc:	0b c0       	rjmp	.+22     	; 0x1114 <main+0x142>
    10fe:	0e 94 99 07 	call	0xf32	; 0xf32 <_ZN4CLED3offEv>
    1102:	34 9b       	sbis	0x06, 4	; 6
    1104:	1b c0       	rjmp	.+54     	; 0x113c <main+0x16a>
    1106:	10 92 03 01 	sts	0x0103, r1	; 0x800103 <state>
    110a:	85 e2       	ldi	r24, 0x25	; 37
    110c:	91 e0       	ldi	r25, 0x01	; 1
    110e:	0e 94 ed 06 	call	0xdda	; 0xdda <_ZN6CAudio8stopSongEv>
    1112:	1d c0       	rjmp	.+58     	; 0x114e <main+0x17c>
    1114:	0e 94 86 07 	call	0xf0c	; 0xf0c <_ZN4CLED2onEv>
    1118:	1a c0       	rjmp	.+52     	; 0x114e <main+0x17c>
    111a:	42 e3       	ldi	r20, 0x32	; 50
    111c:	50 e0       	ldi	r21, 0x00	; 0
    111e:	60 e0       	ldi	r22, 0x00	; 0
    1120:	70 e0       	ldi	r23, 0x00	; 0
    1122:	84 e0       	ldi	r24, 0x04	; 4
    1124:	91 e0       	ldi	r25, 0x01	; 1
    1126:	0e 94 ad 07 	call	0xf5a	; 0xf5a <_ZN4CLED8setDelayEm>
    112a:	28 9a       	sbi	0x05, 0	; 5
    112c:	2a 98       	cbi	0x05, 2	; 5
    112e:	33 9b       	sbis	0x06, 3	; 6
    1130:	0e c0       	rjmp	.+28     	; 0x114e <main+0x17c>
    1132:	34 9b       	sbis	0x06, 4	; 6
    1134:	03 c0       	rjmp	.+6      	; 0x113c <main+0x16a>
    1136:	10 92 03 01 	sts	0x0103, r1	; 0x800103 <state>
    113a:	09 c0       	rjmp	.+18     	; 0x114e <main+0x17c>
    113c:	80 91 34 01 	lds	r24, 0x0134	; 0x800134 <motorStepNeeded>
    1140:	88 23       	and	r24, r24
    1142:	29 f0       	breq	.+10     	; 0x114e <main+0x17c>
    1144:	85 b1       	in	r24, 0x05	; 5
    1146:	8c 27       	eor	r24, r28
    1148:	85 b9       	out	0x05, r24	; 5
    114a:	10 92 34 01 	sts	0x0134, r1	; 0x800134 <motorStepNeeded>
    114e:	40 91 36 01 	lds	r20, 0x0136	; 0x800136 <SysTick>
    1152:	50 91 37 01 	lds	r21, 0x0137	; 0x800137 <SysTick+0x1>
    1156:	60 91 38 01 	lds	r22, 0x0138	; 0x800138 <SysTick+0x2>
    115a:	70 91 39 01 	lds	r23, 0x0139	; 0x800139 <SysTick+0x3>
    115e:	84 e0       	ldi	r24, 0x04	; 4
    1160:	91 e0       	ldi	r25, 0x01	; 1
    1162:	0e 94 b3 07 	call	0xf66	; 0xf66 <_ZN4CLED4stepEm>
    1166:	40 91 36 01 	lds	r20, 0x0136	; 0x800136 <SysTick>
    116a:	50 91 37 01 	lds	r21, 0x0137	; 0x800137 <SysTick+0x1>
    116e:	60 91 38 01 	lds	r22, 0x0138	; 0x800138 <SysTick+0x2>
    1172:	70 91 39 01 	lds	r23, 0x0139	; 0x800139 <SysTick+0x3>
    1176:	8a e1       	ldi	r24, 0x1A	; 26
    1178:	91 e0       	ldi	r25, 0x01	; 1
    117a:	0e 94 b3 07 	call	0xf66	; 0xf66 <_ZN4CLED4stepEm>
    117e:	40 91 36 01 	lds	r20, 0x0136	; 0x800136 <SysTick>
    1182:	50 91 37 01 	lds	r21, 0x0137	; 0x800137 <SysTick+0x1>
    1186:	60 91 38 01 	lds	r22, 0x0138	; 0x800138 <SysTick+0x2>
    118a:	70 91 39 01 	lds	r23, 0x0139	; 0x800139 <SysTick+0x3>
    118e:	8f e0       	ldi	r24, 0x0F	; 15
    1190:	91 e0       	ldi	r25, 0x01	; 1
    1192:	0e 94 b3 07 	call	0xf66	; 0xf66 <_ZN4CLED4stepEm>
    1196:	80 91 35 01 	lds	r24, 0x0135	; 0x800135 <audioStepNeeded>
    119a:	88 23       	and	r24, r24
    119c:	09 f4       	brne	.+2      	; 0x11a0 <main+0x1ce>
    119e:	3b cf       	rjmp	.-394    	; 0x1016 <main+0x44>
    11a0:	85 e2       	ldi	r24, 0x25	; 37
    11a2:	91 e0       	ldi	r25, 0x01	; 1
    11a4:	0e 94 11 07 	call	0xe22	; 0xe22 <_ZN6CAudio4stepEv>
    11a8:	10 92 35 01 	sts	0x0135, r1	; 0x800135 <audioStepNeeded>
    11ac:	34 cf       	rjmp	.-408    	; 0x1016 <main+0x44>

000011ae <__vector_14>:
    11ae:	1f 92       	push	r1
    11b0:	0f 92       	push	r0
    11b2:	0f b6       	in	r0, 0x3f	; 63
    11b4:	0f 92       	push	r0
    11b6:	11 24       	eor	r1, r1
    11b8:	8f 93       	push	r24
    11ba:	9f 93       	push	r25
    11bc:	af 93       	push	r26
    11be:	bf 93       	push	r27
    11c0:	80 91 36 01 	lds	r24, 0x0136	; 0x800136 <SysTick>
    11c4:	90 91 37 01 	lds	r25, 0x0137	; 0x800137 <SysTick+0x1>
    11c8:	a0 91 38 01 	lds	r26, 0x0138	; 0x800138 <SysTick+0x2>
    11cc:	b0 91 39 01 	lds	r27, 0x0139	; 0x800139 <SysTick+0x3>
    11d0:	01 96       	adiw	r24, 0x01	; 1
    11d2:	a1 1d       	adc	r26, r1
    11d4:	b1 1d       	adc	r27, r1
    11d6:	80 93 36 01 	sts	0x0136, r24	; 0x800136 <SysTick>
    11da:	90 93 37 01 	sts	0x0137, r25	; 0x800137 <SysTick+0x1>
    11de:	a0 93 38 01 	sts	0x0138, r26	; 0x800138 <SysTick+0x2>
    11e2:	b0 93 39 01 	sts	0x0139, r27	; 0x800139 <SysTick+0x3>
    11e6:	80 91 01 01 	lds	r24, 0x0101	; 0x800101 <_ZZ11__vector_14E9audioTick>
    11ea:	81 50       	subi	r24, 0x01	; 1
    11ec:	80 93 01 01 	sts	0x0101, r24	; 0x800101 <_ZZ11__vector_14E9audioTick>
    11f0:	81 11       	cpse	r24, r1
    11f2:	06 c0       	rjmp	.+12     	; 0x1200 <__vector_14+0x52>
    11f4:	81 e0       	ldi	r24, 0x01	; 1
    11f6:	80 93 35 01 	sts	0x0135, r24	; 0x800135 <audioStepNeeded>
    11fa:	8b e1       	ldi	r24, 0x1B	; 27
    11fc:	80 93 01 01 	sts	0x0101, r24	; 0x800101 <_ZZ11__vector_14E9audioTick>
    1200:	80 91 00 01 	lds	r24, 0x0100	; 0x800100 <__data_start>
    1204:	81 50       	subi	r24, 0x01	; 1
    1206:	80 93 00 01 	sts	0x0100, r24	; 0x800100 <__data_start>
    120a:	81 11       	cpse	r24, r1
    120c:	05 c0       	rjmp	.+10     	; 0x1218 <__vector_14+0x6a>
    120e:	81 e0       	ldi	r24, 0x01	; 1
    1210:	80 93 34 01 	sts	0x0134, r24	; 0x800134 <motorStepNeeded>
    1214:	80 93 00 01 	sts	0x0100, r24	; 0x800100 <__data_start>
    1218:	80 91 30 01 	lds	r24, 0x0130	; 0x800130 <windowTimeout>
    121c:	90 91 31 01 	lds	r25, 0x0131	; 0x800131 <windowTimeout+0x1>
    1220:	a0 91 32 01 	lds	r26, 0x0132	; 0x800132 <windowTimeout+0x2>
    1224:	b0 91 33 01 	lds	r27, 0x0133	; 0x800133 <windowTimeout+0x3>
    1228:	89 2b       	or	r24, r25
    122a:	8a 2b       	or	r24, r26
    122c:	8b 2b       	or	r24, r27
    122e:	99 f0       	breq	.+38     	; 0x1256 <__vector_14+0xa8>
    1230:	80 91 30 01 	lds	r24, 0x0130	; 0x800130 <windowTimeout>
    1234:	90 91 31 01 	lds	r25, 0x0131	; 0x800131 <windowTimeout+0x1>
    1238:	a0 91 32 01 	lds	r26, 0x0132	; 0x800132 <windowTimeout+0x2>
    123c:	b0 91 33 01 	lds	r27, 0x0133	; 0x800133 <windowTimeout+0x3>
    1240:	01 97       	sbiw	r24, 0x01	; 1
    1242:	a1 09       	sbc	r26, r1
    1244:	b1 09       	sbc	r27, r1
    1246:	80 93 30 01 	sts	0x0130, r24	; 0x800130 <windowTimeout>
    124a:	90 93 31 01 	sts	0x0131, r25	; 0x800131 <windowTimeout+0x1>
    124e:	a0 93 32 01 	sts	0x0132, r26	; 0x800132 <windowTimeout+0x2>
    1252:	b0 93 33 01 	sts	0x0133, r27	; 0x800133 <windowTimeout+0x3>
    1256:	bf 91       	pop	r27
    1258:	af 91       	pop	r26
    125a:	9f 91       	pop	r25
    125c:	8f 91       	pop	r24
    125e:	0f 90       	pop	r0
    1260:	0f be       	out	0x3f, r0	; 63
    1262:	0f 90       	pop	r0
    1264:	1f 90       	pop	r1
    1266:	18 95       	reti

00001268 <__vector_11>:
    1268:	1f 92       	push	r1
    126a:	0f 92       	push	r0
    126c:	0f b6       	in	r0, 0x3f	; 63
    126e:	0f 92       	push	r0
    1270:	11 24       	eor	r1, r1
    1272:	2f 93       	push	r18
    1274:	3f 93       	push	r19
    1276:	4f 93       	push	r20
    1278:	5f 93       	push	r21
    127a:	6f 93       	push	r22
    127c:	7f 93       	push	r23
    127e:	8f 93       	push	r24
    1280:	9f 93       	push	r25
    1282:	af 93       	push	r26
    1284:	bf 93       	push	r27
    1286:	ef 93       	push	r30
    1288:	ff 93       	push	r31
    128a:	85 e2       	ldi	r24, 0x25	; 37
    128c:	91 e0       	ldi	r25, 0x01	; 1
    128e:	0e 94 cc 06 	call	0xd98	; 0xd98 <_ZN6CAudio7onTimerEv>
    1292:	ff 91       	pop	r31
    1294:	ef 91       	pop	r30
    1296:	bf 91       	pop	r27
    1298:	af 91       	pop	r26
    129a:	9f 91       	pop	r25
    129c:	8f 91       	pop	r24
    129e:	7f 91       	pop	r23
    12a0:	6f 91       	pop	r22
    12a2:	5f 91       	pop	r21
    12a4:	4f 91       	pop	r20
    12a6:	3f 91       	pop	r19
    12a8:	2f 91       	pop	r18
    12aa:	0f 90       	pop	r0
    12ac:	0f be       	out	0x3f, r0	; 63
    12ae:	0f 90       	pop	r0
    12b0:	1f 90       	pop	r1
    12b2:	18 95       	reti

000012b4 <_GLOBAL__sub_I_SysTick>:
    12b4:	85 e2       	ldi	r24, 0x25	; 37
    12b6:	91 e0       	ldi	r25, 0x01	; 1
    12b8:	0e 94 a1 06 	call	0xd42	; 0xd42 <_ZN6CAudioC1Ev>
    12bc:	45 e0       	ldi	r20, 0x05	; 5
    12be:	6b e2       	ldi	r22, 0x2B	; 43
    12c0:	70 e0       	ldi	r23, 0x00	; 0
    12c2:	8a e1       	ldi	r24, 0x1A	; 26
    12c4:	91 e0       	ldi	r25, 0x01	; 1
    12c6:	0e 94 78 07 	call	0xef0	; 0xef0 <_ZN4CLEDC1EPVhh>
    12ca:	46 e0       	ldi	r20, 0x06	; 6
    12cc:	6b e2       	ldi	r22, 0x2B	; 43
    12ce:	70 e0       	ldi	r23, 0x00	; 0
    12d0:	8f e0       	ldi	r24, 0x0F	; 15
    12d2:	91 e0       	ldi	r25, 0x01	; 1
    12d4:	0e 94 78 07 	call	0xef0	; 0xef0 <_ZN4CLEDC1EPVhh>
    12d8:	47 e0       	ldi	r20, 0x07	; 7
    12da:	6b e2       	ldi	r22, 0x2B	; 43
    12dc:	70 e0       	ldi	r23, 0x00	; 0
    12de:	84 e0       	ldi	r24, 0x04	; 4
    12e0:	91 e0       	ldi	r25, 0x01	; 1
    12e2:	0c 94 78 07 	jmp	0xef0	; 0xef0 <_ZN4CLEDC1EPVhh>

000012e6 <_GLOBAL__sub_D_SysTick>:
    12e6:	84 e0       	ldi	r24, 0x04	; 4
    12e8:	91 e0       	ldi	r25, 0x01	; 1
    12ea:	0e 94 85 07 	call	0xf0a	; 0xf0a <_ZN4CLEDD1Ev>
    12ee:	8f e0       	ldi	r24, 0x0F	; 15
    12f0:	91 e0       	ldi	r25, 0x01	; 1
    12f2:	0e 94 85 07 	call	0xf0a	; 0xf0a <_ZN4CLEDD1Ev>
    12f6:	8a e1       	ldi	r24, 0x1A	; 26
    12f8:	91 e0       	ldi	r25, 0x01	; 1
    12fa:	0e 94 85 07 	call	0xf0a	; 0xf0a <_ZN4CLEDD1Ev>
    12fe:	85 e2       	ldi	r24, 0x25	; 37
    1300:	91 e0       	ldi	r25, 0x01	; 1
    1302:	0c 94 ac 06 	jmp	0xd58	; 0xd58 <_ZN6CAudioD1Ev>

00001306 <__tablejump2__>:
    1306:	ee 0f       	add	r30, r30
    1308:	ff 1f       	adc	r31, r31
    130a:	05 90       	lpm	r0, Z+
    130c:	f4 91       	lpm	r31, Z
    130e:	e0 2d       	mov	r30, r0
    1310:	09 94       	ijmp

00001312 <__do_global_dtors>:
    1312:	16 e0       	ldi	r17, 0x06	; 6
    1314:	c6 e7       	ldi	r28, 0x76	; 118
    1316:	d6 e0       	ldi	r29, 0x06	; 6
    1318:	04 c0       	rjmp	.+8      	; 0x1322 <__do_global_dtors+0x10>
    131a:	fe 01       	movw	r30, r28
    131c:	0e 94 83 09 	call	0x1306	; 0x1306 <__tablejump2__>
    1320:	21 96       	adiw	r28, 0x01	; 1
    1322:	c7 37       	cpi	r28, 0x77	; 119
    1324:	d1 07       	cpc	r29, r17
    1326:	c9 f7       	brne	.-14     	; 0x131a <__do_global_dtors+0x8>
    1328:	f8 94       	cli

0000132a <__stop_program>:
    132a:	ff cf       	rjmp	.-2      	; 0x132a <__stop_program>
